target datalayout = "e-m:e-p270:32:32-p271:32:32-p272:64:64-i64:64-i128:128-f80:128-n8:16:32:64-S128"
target triple = "x86_64-pc-linux-gnu"

; Function Attrs: nounwind uwtable
define i32 @denseORMQR(ptr noundef %0, i64 noundef %1, i64 noundef %2, ptr noundef %3, ptr noundef %4, ptr noundef %5, ptr noundef %6) #0 {
  %8 = alloca ptr, align 8
  %9 = alloca i64, align 8
  %10 = alloca i64, align 8
  %11 = alloca ptr, align 8
  %12 = alloca ptr, align 8
  %13 = alloca ptr, align 8
  %14 = alloca ptr, align 8
  %15 = alloca ptr, align 8
  %16 = alloca double, align 8
  %17 = alloca i64, align 8
  %18 = alloca i64, align 8
  store ptr %0, ptr %8, align 8, !tbaa !18
  store i64 %1, ptr %9, align 8, !tbaa !19
  store i64 %2, ptr %10, align 8, !tbaa !19
  store ptr %3, ptr %11, align 8, !tbaa !20
  store ptr %4, ptr %12, align 8, !tbaa !20
  store ptr %5, ptr %13, align 8, !tbaa !20
  store ptr %6, ptr %14, align 8, !tbaa !20
  call void @llvm.lifetime.start.p0(i64 8, ptr %15) #4
  call void @llvm.lifetime.start.p0(i64 8, ptr %16) #4
  call void @llvm.lifetime.start.p0(i64 8, ptr %17) #4
  call void @llvm.lifetime.start.p0(i64 8, ptr %18) #4
  store i64 0, ptr %17, align 8, !tbaa !19
  br label %19

19:                                               ; preds = %31, %7
  %20 = load i64, ptr %17, align 8, !tbaa !19
  %21 = load i64, ptr %10, align 8, !tbaa !19
  %22 = icmp slt i64 %20, %21
  br i1 %22, label %23, label %34

23:                                               ; preds = %19
  %24 = load ptr, ptr %12, align 8, !tbaa !20
  %25 = load i64, ptr %17, align 8, !tbaa !19
  %26 = getelementptr inbounds double, ptr %24, i64 %25
  %27 = load double, ptr %26, align 8, !tbaa !21
  %28 = load ptr, ptr %13, align 8, !tbaa !20
  %29 = load i64, ptr %17, align 8, !tbaa !19
  %30 = getelementptr inbounds double, ptr %28, i64 %29
  store double %27, ptr %30, align 8, !tbaa !21
  br label %31

31:                                               ; preds = %23
  %32 = load i64, ptr %17, align 8, !tbaa !19
  %33 = add nsw i64 %32, 1
  store i64 %33, ptr %17, align 8, !tbaa !19
  br label %19, !llvm.loop !50

34:                                               ; preds = %19
  %35 = load i64, ptr %10, align 8, !tbaa !19
  store i64 %35, ptr %17, align 8, !tbaa !19
  br label %36

36:                                               ; preds = %44, %34
  %37 = load i64, ptr %17, align 8, !tbaa !19
  %38 = load i64, ptr %9, align 8, !tbaa !19
  %39 = icmp slt i64 %37, %38
  br i1 %39, label %40, label %47

40:                                               ; preds = %36
  %41 = load ptr, ptr %13, align 8, !tbaa !20
  %42 = load i64, ptr %17, align 8, !tbaa !19
  %43 = getelementptr inbounds double, ptr %41, i64 %42
  store double 0.000000e+00, ptr %43, align 8, !tbaa !21
  br label %44

44:                                               ; preds = %40
  %45 = load i64, ptr %17, align 8, !tbaa !19
  %46 = add nsw i64 %45, 1
  store i64 %46, ptr %17, align 8, !tbaa !19
  br label %36, !llvm.loop !51

47:                                               ; preds = %36
  %48 = load i64, ptr %10, align 8, !tbaa !19
  %49 = sub nsw i64 %48, 1
  store i64 %49, ptr %18, align 8, !tbaa !19
  br label %50

50:                                               ; preds = %126, %47
  %51 = load i64, ptr %18, align 8, !tbaa !19
  %52 = icmp sge i64 %51, 0
  br i1 %52, label %53, label %129

53:                                               ; preds = %50
  %54 = load ptr, ptr %8, align 8, !tbaa !18
  %55 = load i64, ptr %18, align 8, !tbaa !19
  %56 = getelementptr inbounds ptr, ptr %54, i64 %55
  %57 = load ptr, ptr %56, align 8, !tbaa !20
  store ptr %57, ptr %15, align 8, !tbaa !20
  %58 = load ptr, ptr %14, align 8, !tbaa !20
  %59 = getelementptr inbounds double, ptr %58, i64 0
  store double 1.000000e+00, ptr %59, align 8, !tbaa !21
  %60 = load ptr, ptr %13, align 8, !tbaa !20
  %61 = load i64, ptr %18, align 8, !tbaa !19
  %62 = getelementptr inbounds double, ptr %60, i64 %61
  %63 = load double, ptr %62, align 8, !tbaa !21
  store double %63, ptr %16, align 8, !tbaa !21
  store i64 1, ptr %17, align 8, !tbaa !19
  br label %64

64:                                               ; preds = %92, %53
  %65 = load i64, ptr %17, align 8, !tbaa !19
  %66 = load i64, ptr %9, align 8, !tbaa !19
  %67 = load i64, ptr %18, align 8, !tbaa !19
  %68 = sub nsw i64 %66, %67
  %69 = icmp slt i64 %65, %68
  br i1 %69, label %70, label %95

70:                                               ; preds = %64
  %71 = load ptr, ptr %15, align 8, !tbaa !20
  %72 = load i64, ptr %17, align 8, !tbaa !19
  %73 = load i64, ptr %18, align 8, !tbaa !19
  %74 = add nsw i64 %72, %73
  %75 = getelementptr inbounds double, ptr %71, i64 %74
  %76 = load double, ptr %75, align 8, !tbaa !21
  %77 = load ptr, ptr %14, align 8, !tbaa !20
  %78 = load i64, ptr %17, align 8, !tbaa !19
  %79 = getelementptr inbounds double, ptr %77, i64 %78
  store double %76, ptr %79, align 8, !tbaa !21
  %80 = load ptr, ptr %14, align 8, !tbaa !20
  %81 = load i64, ptr %17, align 8, !tbaa !19
  %82 = getelementptr inbounds double, ptr %80, i64 %81
  %83 = load double, ptr %82, align 8, !tbaa !21
  %84 = load ptr, ptr %13, align 8, !tbaa !20
  %85 = load i64, ptr %17, align 8, !tbaa !19
  %86 = load i64, ptr %18, align 8, !tbaa !19
  %87 = add nsw i64 %85, %86
  %88 = getelementptr inbounds double, ptr %84, i64 %87
  %89 = load double, ptr %88, align 8, !tbaa !21
  %90 = load double, ptr %16, align 8, !tbaa !21
  %91 = call double @llvm.fmuladd.f64(double %83, double %89, double %90)
  store double %91, ptr %16, align 8, !tbaa !21
  br label %92

92:                                               ; preds = %70
  %93 = load i64, ptr %17, align 8, !tbaa !19
  %94 = add nsw i64 %93, 1
  store i64 %94, ptr %17, align 8, !tbaa !19
  br label %64, !llvm.loop !52

95:                                               ; preds = %64
  %96 = load ptr, ptr %11, align 8, !tbaa !20
  %97 = load i64, ptr %18, align 8, !tbaa !19
  %98 = getelementptr inbounds double, ptr %96, i64 %97
  %99 = load double, ptr %98, align 8, !tbaa !21
  %100 = load double, ptr %16, align 8, !tbaa !21
  %101 = fmul double %100, %99
  store double %101, ptr %16, align 8, !tbaa !21
  store i64 0, ptr %17, align 8, !tbaa !19
  br label %102

102:                                              ; preds = %122, %95
  %103 = load i64, ptr %17, align 8, !tbaa !19
  %104 = load i64, ptr %9, align 8, !tbaa !19
  %105 = load i64, ptr %18, align 8, !tbaa !19
  %106 = sub nsw i64 %104, %105
  %107 = icmp slt i64 %103, %106
  br i1 %107, label %108, label %125

108:                                              ; preds = %102
  %109 = load double, ptr %16, align 8, !tbaa !21
  %110 = load ptr, ptr %14, align 8, !tbaa !20
  %111 = load i64, ptr %17, align 8, !tbaa !19
  %112 = getelementptr inbounds double, ptr %110, i64 %111
  %113 = load double, ptr %112, align 8, !tbaa !21
  %114 = load ptr, ptr %13, align 8, !tbaa !20
  %115 = load i64, ptr %17, align 8, !tbaa !19
  %116 = load i64, ptr %18, align 8, !tbaa !19
  %117 = add nsw i64 %115, %116
  %118 = getelementptr inbounds double, ptr %114, i64 %117
  %119 = load double, ptr %118, align 8, !tbaa !21
  %120 = fneg double %109
  %121 = call double @llvm.fmuladd.f64(double %120, double %113, double %119)
  store double %121, ptr %118, align 8, !tbaa !21
  br label %122

122:                                              ; preds = %108
  %123 = load i64, ptr %17, align 8, !tbaa !19
  %124 = add nsw i64 %123, 1
  store i64 %124, ptr %17, align 8, !tbaa !19
  br label %102, !llvm.loop !53

125:                                              ; preds = %102
  br label %126

126:                                              ; preds = %125
  %127 = load i64, ptr %18, align 8, !tbaa !19
  %128 = add nsw i64 %127, -1
  store i64 %128, ptr %18, align 8, !tbaa !19
  br label %50, !llvm.loop !54

129:                                              ; preds = %50
  call void @llvm.lifetime.end.p0(i64 8, ptr %18) #4
  call void @llvm.lifetime.end.p0(i64 8, ptr %17) #4
  call void @llvm.lifetime.end.p0(i64 8, ptr %16) #4
  call void @llvm.lifetime.end.p0(i64 8, ptr %15) #4
  ret i32 0
}