; Function Attrs: nofree norecurse nosync nounwind memory(read, argmem: readwrite, inaccessiblemem: none) uwtable
define noundef i32 @denseORMQR(ptr noundef readonly captures(none) %0, i64 noundef %1, i64 noundef %2, ptr noundef readonly captures(none) %3, ptr noundef readonly captures(none) %4, ptr noundef captures(none) %5, ptr noundef captures(none) %6) local_unnamed_addr #1 {
  %8 = icmp sgt i64 %2, 0
  br i1 %8, label %.lr.ph, label %.preheader53

.preheader53:                                     ; preds = %.lr.ph, %7
  %9 = icmp slt i64 %2, %1
  br i1 %9, label %.lr.ph56.preheader, label %.preheader

.lr.ph56.preheader:                               ; preds = %.preheader53
  %10 = shl i64 %2, 3
  %scevgep = getelementptr i8, ptr %5, i64 %10
  %11 = sub i64 %1, %2
  %12 = shl i64 %11, 3
  tail call void @llvm.memset.p0.i64(ptr align 8 %scevgep, i8 0, i64 %12, i1 false), !tbaa !17
  br label %.preheader

.lr.ph:                                           ; preds = %7, %.lr.ph
  %.04854 = phi i64 [ %16, %.lr.ph ], [ 0, %7 ]
  %13 = getelementptr inbounds nuw double, ptr %4, i64 %.04854
  %14 = load double, ptr %13, align 8, !tbaa !17
  %15 = getelementptr inbounds nuw double, ptr %5, i64 %.04854
  store double %14, ptr %15, align 8, !tbaa !17
  %16 = add nuw nsw i64 %.04854, 1
  %exitcond.not = icmp eq i64 %16, %2
  br i1 %exitcond.not, label %.preheader53, label %.lr.ph, !llvm.loop !45

.preheader:                                       ; preds = %.lr.ph56.preheader, %.preheader53
  br i1 %8, label %.lr.ph66.preheader, label %._crit_edge67

.lr.ph66.preheader:                               ; preds = %.preheader
  %17 = add i64 %1, 1
  %18 = sub i64 %17, %2
  br label %.lr.ph66

.loopexit:                                        ; preds = %40, %._crit_edge
  %19 = icmp sgt i64 %.065.in, 1
  %indvars.iv.next = add i64 %indvars.iv, 1
  br i1 %19, label %.lr.ph66, label %._crit_edge67, !llvm.loop !46

.lr.ph66:                                         ; preds = %.lr.ph66.preheader, %.loopexit
  %indvars.iv = phi i64 [ %18, %.lr.ph66.preheader ], [ %indvars.iv.next, %.loopexit ]
  %.065.in = phi i64 [ %2, %.lr.ph66.preheader ], [ %.065, %.loopexit ]
  %.065 = add nsw i64 %.065.in, -1
  %20 = getelementptr inbounds nuw ptr, ptr %0, i64 %.065
  %21 = load ptr, ptr %20, align 8, !tbaa !16
  store double 1.000000e+00, ptr %6, align 8, !tbaa !17
  %22 = getelementptr double, ptr %5, i64 %.065
  %23 = load double, ptr %22, align 8, !tbaa !17
  %24 = sub nsw i64 %1, %.065
  %25 = icmp sgt i64 %24, 1
  br i1 %25, label %.lr.ph59, label %._crit_edge

.lr.ph59:                                         ; preds = %.lr.ph66, %.lr.ph59
  %.258 = phi i64 [ %33, %.lr.ph59 ], [ 1, %.lr.ph66 ]
  %.04957 = phi double [ %32, %.lr.ph59 ], [ %23, %.lr.ph66 ]
  %26 = add nsw i64 %.258, %.065
  %27 = getelementptr inbounds double, ptr %21, i64 %26
  %28 = load double, ptr %27, align 8, !tbaa !17
  %29 = getelementptr inbounds nuw double, ptr %6, i64 %.258
  store double %28, ptr %29, align 8, !tbaa !17
  %30 = getelementptr inbounds double, ptr %5, i64 %26
  %31 = load double, ptr %30, align 8, !tbaa !17
  %32 = tail call double @llvm.fmuladd.f64(double %28, double %31, double %.04957)
  %33 = add nuw nsw i64 %.258, 1
  %34 = icmp slt i64 %33, %24
  br i1 %34, label %.lr.ph59, label %._crit_edge, !llvm.loop !47

._crit_edge:                                      ; preds = %.lr.ph59, %.lr.ph66
  %.049.lcssa = phi double [ %23, %.lr.ph66 ], [ %32, %.lr.ph59 ]
  %35 = icmp sgt i64 %24, 0
  br i1 %35, label %.lr.ph63, label %.loopexit

.lr.ph63:                                         ; preds = %._crit_edge
  %36 = getelementptr inbounds nuw double, ptr %3, i64 %.065
  %37 = load double, ptr %36, align 8, !tbaa !17
  %38 = fneg double %37
  %39 = fmul double %.049.lcssa, %38
  br label %40

40:                                               ; preds = %.lr.ph63, %40
  %.361 = phi i64 [ 0, %.lr.ph63 ], [ %45, %40 ]
  %41 = getelementptr inbounds nuw double, ptr %6, i64 %.361
  %42 = load double, ptr %41, align 8, !tbaa !17
  %gep = getelementptr double, ptr %22, i64 %.361
  %43 = load double, ptr %gep, align 8, !tbaa !17
  %44 = tail call double @llvm.fmuladd.f64(double %39, double %42, double %43)
  store double %44, ptr %gep, align 8, !tbaa !17
  %45 = add nuw nsw i64 %.361, 1
  %exitcond69.not = icmp eq i64 %45, %indvars.iv
  br i1 %exitcond69.not, label %.loopexit, label %40, !llvm.loop !48

._crit_edge67:                                    ; preds = %.loopexit, %.preheader
  ret i32 0
}